; Function Attrs: mustprogress nounwind uwtable
define hidden void @_ZN2cv3mcc20CCheckerDetectorImplD2Ev(ptr noundef nonnull align 8 dereferenceable(49) initializes((0, 8)) %0) unnamed_addr #5 align 2 personality ptr @__gxx_personality_v0 {
  store ptr getelementptr inbounds nuw inrange(-16, 168) (i8, ptr @_ZTVN2cv3mcc20CCheckerDetectorImplE, i64 16), ptr %0, align 8, !tbaa !14
  %2 = getelementptr inbounds nuw i8, ptr %0, i64 32
  tail call void @_ZN2cv3dnn14dnn4_v202412233NetD1Ev(ptr noundef nonnull align 8 dereferenceable(16) %2) #27
  %3 = getelementptr inbounds nuw i8, ptr %0, i64 8
  %4 = load ptr, ptr %3, align 8, !tbaa !38
  %5 = getelementptr inbounds nuw i8, ptr %0, i64 16
  %6 = load ptr, ptr %5, align 8, !tbaa !39
  %.not4.i.i.i.i = icmp eq ptr %4, %6
  br i1 %.not4.i.i.i.i, label %_ZSt8_DestroyIPN2cv3PtrINS0_3mcc8CCheckerEEES4_EvT_S6_RSaIT0_E.exit.i, label %.lr.ph.i.i.i.i

.lr.ph.i.i.i.i:                                   ; preds = %1, %_ZSt8_DestroyIN2cv3PtrINS0_3mcc8CCheckerEEEEvPT_.exit.i.i.i.i
  %.05.i.i.i.i = phi ptr [ %30, %_ZSt8_DestroyIN2cv3PtrINS0_3mcc8CCheckerEEEEvPT_.exit.i.i.i.i ], [ %4, %1 ]
  %7 = getelementptr inbounds nuw i8, ptr %.05.i.i.i.i, i64 8
  %8 = load ptr, ptr %7, align 8, !tbaa !37
  %.not.i.i.i.i.i.i.i = icmp eq ptr %8, null
  br i1 %.not.i.i.i.i.i.i.i, label %_ZSt8_DestroyIN2cv3PtrINS0_3mcc8CCheckerEEEEvPT_.exit.i.i.i.i, label %9

9:                                                ; preds = %.lr.ph.i.i.i.i
  %10 = getelementptr inbounds nuw i8, ptr %8, i64 8
  %11 = load atomic i64, ptr %10 acquire, align 8
  %12 = icmp eq i64 %11, 4294967297
  %13 = trunc i64 %11 to i32
  br i1 %12, label %14, label %22

14:                                               ; preds = %9
  store i32 0, ptr %10, align 8, !tbaa !8
  %15 = getelementptr inbounds nuw i8, ptr %8, i64 12
  store i32 0, ptr %15, align 4, !tbaa !13
  %16 = load ptr, ptr %8, align 8, !tbaa !14
  %17 = getelementptr inbounds nuw i8, ptr %16, i64 16
  %18 = load ptr, ptr %17, align 8
  tail call void %18(ptr noundef nonnull align 8 dereferenceable(16) %8) #27
  %19 = load ptr, ptr %8, align 8, !tbaa !14
  %20 = getelementptr inbounds nuw i8, ptr %19, i64 24
  %21 = load ptr, ptr %20, align 8
  tail call void %21(ptr noundef nonnull align 8 dereferenceable(16) %8) #27
  br label %_ZSt8_DestroyIN2cv3PtrINS0_3mcc8CCheckerEEEEvPT_.exit.i.i.i.i

22:                                               ; preds = %9
  %23 = load i8, ptr @__libc_single_threaded, align 1, !tbaa !40
  %.not.i.i.i.i.i.i.i.i = icmp eq i8 %23, 0
  br i1 %.not.i.i.i.i.i.i.i.i, label %26, label %24

24:                                               ; preds = %22
  %25 = add nsw i32 %13, -1
  store i32 %25, ptr %10, align 4, !tbaa !41
  br label %_ZN9__gnu_cxx27__exchange_and_add_dispatchEPii.exit.i.i.i.i.i.i.i.i

26:                                               ; preds = %22
  %27 = atomicrmw volatile add ptr %10, i32 -1 acq_rel, align 4
  br label %_ZN9__gnu_cxx27__exchange_and_add_dispatchEPii.exit.i.i.i.i.i.i.i.i

_ZN9__gnu_cxx27__exchange_and_add_dispatchEPii.exit.i.i.i.i.i.i.i.i: ; preds = %26, %24
  %.0.i.i.i.i.i.i.i.i.i = phi i32 [ %13, %24 ], [ %27, %26 ]
  %28 = icmp eq i32 %.0.i.i.i.i.i.i.i.i.i, 1
  br i1 %28, label %29, label %_ZSt8_DestroyIN2cv3PtrINS0_3mcc8CCheckerEEEEvPT_.exit.i.i.i.i, !prof !42

29:                                               ; preds = %_ZN9__gnu_cxx27__exchange_and_add_dispatchEPii.exit.i.i.i.i.i.i.i.i
  tail call void @_ZNSt16_Sp_counted_baseILN9__gnu_cxx12_Lock_policyE2EE24_M_release_last_use_coldEv(ptr noundef nonnull align 8 dereferenceable(16) %8) #27
  br label %_ZSt8_DestroyIN2cv3PtrINS0_3mcc8CCheckerEEEEvPT_.exit.i.i.i.i

_ZSt8_DestroyIN2cv3PtrINS0_3mcc8CCheckerEEEEvPT_.exit.i.i.i.i: ; preds = %29, %_ZN9__gnu_cxx27__exchange_and_add_dispatchEPii.exit.i.i.i.i.i.i.i.i, %14, %.lr.ph.i.i.i.i
  %30 = getelementptr inbounds nuw i8, ptr %.05.i.i.i.i, i64 16
  %.not.i.i.i.i = icmp eq ptr %30, %6
  br i1 %.not.i.i.i.i, label %_ZSt8_DestroyIPN2cv3PtrINS0_3mcc8CCheckerEEES4_EvT_S6_RSaIT0_E.exitthread-pre-split.i, label %.lr.ph.i.i.i.i, !llvm.loop !43

_ZSt8_DestroyIPN2cv3PtrINS0_3mcc8CCheckerEEES4_EvT_S6_RSaIT0_E.exitthread-pre-split.i: ; preds = %_ZSt8_DestroyIN2cv3PtrINS0_3mcc8CCheckerEEEEvPT_.exit.i.i.i.i
  %.pr.i = load ptr, ptr %3, align 8, !tbaa !38
  br label %_ZSt8_DestroyIPN2cv3PtrINS0_3mcc8CCheckerEEES4_EvT_S6_RSaIT0_E.exit.i

_ZSt8_DestroyIPN2cv3PtrINS0_3mcc8CCheckerEEES4_EvT_S6_RSaIT0_E.exit.i: ; preds = %_ZSt8_DestroyIPN2cv3PtrINS0_3mcc8CCheckerEEES4_EvT_S6_RSaIT0_E.exitthread-pre-split.i, %1
  %31 = phi ptr [ %.pr.i, %_ZSt8_DestroyIPN2cv3PtrINS0_3mcc8CCheckerEEES4_EvT_S6_RSaIT0_E.exitthread-pre-split.i ], [ %4, %1 ]
  %.not.i.i.i = icmp eq ptr %31, null
  br i1 %.not.i.i.i, label %_ZNSt6vectorIN2cv3PtrINS0_3mcc8CCheckerEEESaIS4_EED2Ev.exit, label %32

32:                                               ; preds = %_ZSt8_DestroyIPN2cv3PtrINS0_3mcc8CCheckerEEES4_EvT_S6_RSaIT0_E.exit.i
  tail call void @_ZdlPv(ptr noundef nonnull %31) #28
  br label %_ZNSt6vectorIN2cv3PtrINS0_3mcc8CCheckerEEESaIS4_EED2Ev.exit

_ZNSt6vectorIN2cv3PtrINS0_3mcc8CCheckerEEESaIS4_EED2Ev.exit: ; preds = %_ZSt8_DestroyIPN2cv3PtrINS0_3mcc8CCheckerEEES4_EvT_S6_RSaIT0_E.exit.i, %32
  tail call void @_ZN2cv9AlgorithmD2Ev(ptr noundef nonnull align 8 dereferenceable(8) %0) #27
  ret void
}